target datalayout = "e-m:e-p270:32:32-p271:32:32-p272:64:64-i64:64-i128:128-f80:128-n8:16:32:64-S128"
target triple = "x86_64-pc-linux-gnu"

@__const.Abc_ExactTestSingleOutput.pTruth = private unnamed_addr constant [4 x i64] [i64 51966, i64 0, i64 0, i64 0], align 16
@__const.Abc_ExactTestSingleOutput.pArrTimeProfile = private unnamed_addr constant [4 x i32] [i32 6, i32 2, i32 8, i32 5], align 16

; Function Attrs: nounwind uwtable
define ptr @Abc_NtkFromTruthTable(ptr noundef %0, i32 noundef %1) #0 {
  %3 = alloca ptr, align 8
  %4 = alloca i32, align 4
  %5 = alloca ptr, align 8
  %6 = alloca ptr, align 8
  %7 = alloca ptr, align 8
  store ptr %0, ptr %3, align 8, !tbaa !8
  store i32 %1, ptr %4, align 4, !tbaa !10
  call void @llvm.lifetime.start.p0(i64 8, ptr %5) #14
  call void @llvm.lifetime.start.p0(i64 8, ptr %6) #14
  call void @llvm.lifetime.start.p0(i64 8, ptr %7) #14
  %8 = call ptr (...) @Mem_FlexStart()
  store ptr %8, ptr %6, align 8, !tbaa !147
  %9 = load ptr, ptr %6, align 8, !tbaa !147
  %10 = load i32, ptr %4, align 4, !tbaa !10
  %11 = load ptr, ptr %3, align 8, !tbaa !8
  %12 = call ptr @Abc_SopCreateFromTruth(ptr noundef %9, i32 noundef %10, ptr noundef %11)
  store ptr %12, ptr %7, align 8, !tbaa !14
  %13 = load ptr, ptr %7, align 8, !tbaa !14
  %14 = call ptr @Abc_NtkCreateWithNode(ptr noundef %13)
  store ptr %14, ptr %5, align 8, !tbaa !64
  %15 = load ptr, ptr %5, align 8, !tbaa !64
  call void @Abc_NtkShortNames(ptr noundef %15)
  %16 = load ptr, ptr %6, align 8, !tbaa !147
  call void @Mem_FlexStop(ptr noundef %16, i32 noundef 0)
  %17 = load ptr, ptr %5, align 8, !tbaa !64
  call void @llvm.lifetime.end.p0(i64 8, ptr %7) #14
  call void @llvm.lifetime.end.p0(i64 8, ptr %6) #14
  call void @llvm.lifetime.end.p0(i64 8, ptr %5) #14
  ret ptr %17
}

; Function Attrs: nounwind uwtable
define void @Abc_ExactTestSingleOutput(i32 noundef %0) #0 {
  %2 = alloca i32, align 4
  %3 = alloca [4 x i64], align 16
  %4 = alloca ptr, align 8
  %5 = alloca ptr, align 8
  %6 = alloca ptr, align 8
  %7 = alloca ptr, align 8
  %8 = alloca [4 x i32], align 16
  store i32 %0, ptr %2, align 4, !tbaa !10
  call void @llvm.lifetime.start.p0(i64 32, ptr %3) #14
  call void @llvm.memcpy.p0.p0.i64(ptr align 16 %3, ptr align 16 @__const.Abc_ExactTestSingleOutput.pTruth, i64 32, i1 false)
  call void @llvm.lifetime.start.p0(i64 8, ptr %4) #14
  call void @llvm.lifetime.start.p0(i64 8, ptr %5) #14
  call void @llvm.lifetime.start.p0(i64 8, ptr %6) #14
  call void @llvm.lifetime.start.p0(i64 8, ptr %7) #14
  call void @llvm.lifetime.start.p0(i64 16, ptr %8) #14
  call void @llvm.memcpy.p0.p0.i64(ptr align 16 %8, ptr align 16 @__const.Abc_ExactTestSingleOutput.pArrTimeProfile, i64 16, i1 false)
  %9 = getelementptr inbounds [4 x i64], ptr %3, i64 0, i64 0
  %10 = call ptr @Abc_NtkFromTruthTable(ptr noundef %9, i32 noundef 4)
  store ptr %10, ptr %4, align 8, !tbaa !64
  %11 = getelementptr inbounds [4 x i64], ptr %3, i64 0, i64 0
  %12 = load i32, ptr %2, align 4, !tbaa !10
  %13 = call ptr @Abc_NtkFindExact(ptr noundef %11, i32 noundef 4, i32 noundef 1, i32 noundef -1, ptr noundef null, i32 noundef 0, i32 noundef 0, i32 noundef %12)
  store ptr %13, ptr %5, align 8, !tbaa !64
  %14 = load ptr, ptr %5, align 8, !tbaa !64
  call void @Abc_NtkShortNames(ptr noundef %14)
  %15 = load ptr, ptr %4, align 8, !tbaa !64
  %16 = load ptr, ptr %5, align 8, !tbaa !64
  call void @Abc_NtkCecSat(ptr noundef %15, ptr noundef %16, i32 noundef 10000, i32 noundef 0)
  %17 = load ptr, ptr %5, align 8, !tbaa !64
  call void @Abc_NtkDelete(ptr noundef %17)
  %18 = getelementptr inbounds [4 x i64], ptr %3, i64 0, i64 0
  %19 = load i32, ptr %2, align 4, !tbaa !10
  %20 = call ptr @Abc_NtkFindExact(ptr noundef %18, i32 noundef 4, i32 noundef 1, i32 noundef 3, ptr noundef null, i32 noundef 0, i32 noundef 0, i32 noundef %19)
  store ptr %20, ptr %6, align 8, !tbaa !64
  %21 = load ptr, ptr %6, align 8, !tbaa !64
  call void @Abc_NtkShortNames(ptr noundef %21)
  %22 = load ptr, ptr %4, align 8, !tbaa !64
  %23 = load ptr, ptr %6, align 8, !tbaa !64
  call void @Abc_NtkCecSat(ptr noundef %22, ptr noundef %23, i32 noundef 10000, i32 noundef 0)
  %24 = load ptr, ptr %6, align 8, !tbaa !64
  call void @Abc_NtkDelete(ptr noundef %24)
  %25 = getelementptr inbounds [4 x i64], ptr %3, i64 0, i64 0
  %26 = getelementptr inbounds [4 x i32], ptr %8, i64 0, i64 0
  %27 = load i32, ptr %2, align 4, !tbaa !10
  %28 = call ptr @Abc_NtkFindExact(ptr noundef %25, i32 noundef 4, i32 noundef 1, i32 noundef 9, ptr noundef %26, i32 noundef 50000, i32 noundef 0, i32 noundef %27)
  store ptr %28, ptr %7, align 8, !tbaa !64
  %29 = load ptr, ptr %7, align 8, !tbaa !64
  call void @Abc_NtkShortNames(ptr noundef %29)
  %30 = load ptr, ptr %4, align 8, !tbaa !64
  %31 = load ptr, ptr %7, align 8, !tbaa !64
  call void @Abc_NtkCecSat(ptr noundef %30, ptr noundef %31, i32 noundef 10000, i32 noundef 0)
  %32 = load ptr, ptr %7, align 8, !tbaa !64
  call void @Abc_NtkDelete(ptr noundef %32)
  %33 = load ptr, ptr %4, align 8, !tbaa !64
  call void @Abc_NtkDelete(ptr noundef %33)
  call void @llvm.lifetime.end.p0(i64 16, ptr %8) #14
  call void @llvm.lifetime.end.p0(i64 8, ptr %7) #14
  call void @llvm.lifetime.end.p0(i64 8, ptr %6) #14
  call void @llvm.lifetime.end.p0(i64 8, ptr %5) #14
  call void @llvm.lifetime.end.p0(i64 8, ptr %4) #14
  call void @llvm.lifetime.end.p0(i64 32, ptr %3) #14
  ret void
}