; Function Attrs: nounwind uwtable
define void @Abc_ExactTestSingleOutput(i32 noundef %0) local_unnamed_addr #0 {
  %2 = alloca [4 x i64], align 16
  %3 = alloca [4 x i32], align 16
  call void @llvm.lifetime.start.p0(i64 32, ptr nonnull %2) #29
  call void @llvm.memcpy.p0.p0.i64(ptr noundef nonnull align 16 dereferenceable(32) %2, ptr noundef nonnull align 16 dereferenceable(32) @__const.Abc_ExactTestSingleOutputAIG.pTruth, i64 32, i1 false)
  call void @llvm.lifetime.start.p0(i64 16, ptr nonnull %3) #29
  call void @llvm.memcpy.p0.p0.i64(ptr noundef nonnull align 16 dereferenceable(16) %3, ptr noundef nonnull align 16 dereferenceable(16) @__const.Abc_ExactTestSingleOutputAIG.pArrTimeProfile, i64 16, i1 false)
  %4 = tail call ptr (...) @Mem_FlexStart() #29
  %5 = call ptr @Abc_SopCreateFromTruth(ptr noundef %4, i32 noundef 4, ptr noundef nonnull %2) #29
  %6 = call ptr @Abc_NtkCreateWithNode(ptr noundef %5) #29
  call void @Abc_NtkShortNames(ptr noundef %6) #29
  call void @Mem_FlexStop(ptr noundef %4, i32 noundef 0) #29
  %7 = call ptr @Abc_NtkFindExact(ptr noundef nonnull %2, i32 noundef 4, i32 noundef 1, i32 noundef -1, ptr noundef null, i32 noundef 0, i32 noundef 0, i32 noundef %0)
  call void @Abc_NtkShortNames(ptr noundef %7) #29
  call void @Abc_NtkCecSat(ptr noundef %6, ptr noundef %7, i32 noundef 10000, i32 noundef 0) #29
  call void @Abc_NtkDelete(ptr noundef %7) #29
  %8 = call ptr @Abc_NtkFindExact(ptr noundef nonnull %2, i32 noundef 4, i32 noundef 1, i32 noundef 3, ptr noundef null, i32 noundef 0, i32 noundef 0, i32 noundef %0)
  call void @Abc_NtkShortNames(ptr noundef %8) #29
  call void @Abc_NtkCecSat(ptr noundef %6, ptr noundef %8, i32 noundef 10000, i32 noundef 0) #29
  call void @Abc_NtkDelete(ptr noundef %8) #29
  %9 = call ptr @Abc_NtkFindExact(ptr noundef nonnull %2, i32 noundef 4, i32 noundef 1, i32 noundef 9, ptr noundef nonnull %3, i32 noundef 50000, i32 noundef 0, i32 noundef %0)
  call void @Abc_NtkShortNames(ptr noundef %9) #29
  call void @Abc_NtkCecSat(ptr noundef %6, ptr noundef %9, i32 noundef 10000, i32 noundef 0) #29
  call void @Abc_NtkDelete(ptr noundef %9) #29
  call void @Abc_NtkDelete(ptr noundef %6) #29
  call void @llvm.lifetime.end.p0(i64 16, ptr nonnull %3) #29
  call void @llvm.lifetime.end.p0(i64 32, ptr nonnull %2) #29
  ret void
}